target datalayout = "e-m:e-p270:32:32-p271:32:32-p272:64:64-i64:64-i128:128-f80:128-n8:16:32:64-S128"
target triple = "x86_64-pc-linux-gnu"

%class.LogOutput = type <{ ptr, i8, [7 x i8], %class.stringStream, %class.LogDecorators, [4 x i8] }>
%class.stringStream = type <{ %class.outputStream, ptr, i64, i64, i8, [48 x i8], [7 x i8] }>
%class.outputStream = type { ptr, i32, i8, i32, i64, %class.TimeStamp, ptr, i64 }
%class.TimeStamp = type { i64 }
%class.LogDecorators = type { i32 }

@.str = private unnamed_addr constant [4 x i8] c"%s \00", align 1
@.str.4 = private unnamed_addr constant [5 x i8] c"%c%s\00", align 1
@.str.5 = private unnamed_addr constant [6 x i8] c" none\00", align 1
@_ZN13LogDecorators5_nameE = external global [0 x [2 x ptr]], align 8

; Function Attrs: mustprogress nounwind uwtable
define linkonce_odr hidden noundef i32 @_ZN13LogDecorators4maskENS_9DecoratorE(i32 noundef %0) #1 comdat align 2 {
  %2 = alloca i32, align 4
  store i32 %0, ptr %2, align 4
  %3 = load i32, ptr %2, align 4
  %4 = shl i32 1, %3
  ret i32 %4
}

; Function Attrs: mustprogress nounwind uwtable
define linkonce_odr hidden noundef ptr @_ZNK12stringStream4baseEv(ptr noundef nonnull align 8 dereferenceable(129) %0) #1 comdat align 2 {
  %2 = alloca ptr, align 8
  store ptr %0, ptr %2, align 8
  %3 = load ptr, ptr %2, align 8
  %4 = getelementptr inbounds %class.stringStream, ptr %3, i32 0, i32 1
  %5 = load ptr, ptr %4, align 8
  ret ptr %5
}

; Function Attrs: mustprogress nounwind uwtable
define linkonce_odr hidden noundef ptr @_ZN13LogDecorators4nameENS_9DecoratorE(i32 noundef %0) #1 comdat align 2 {
  %2 = alloca i32, align 4
  store i32 %0, ptr %2, align 4
  %3 = load i32, ptr %2, align 4
  %4 = zext i32 %3 to i64
  %5 = getelementptr inbounds [0 x [2 x ptr]], ptr @_ZN13LogDecorators5_nameE, i64 0, i64 %4
  %6 = getelementptr inbounds [2 x ptr], ptr %5, i64 0, i64 0
  %7 = load ptr, ptr %6, align 8
  ret ptr %7
}

; Function Attrs: mustprogress nounwind uwtable
define linkonce_odr hidden noundef zeroext i1 @_ZNK13LogDecorators12is_decoratorENS_9DecoratorE(ptr noundef nonnull align 4 dereferenceable(4) %0, i32 noundef %1) #1 comdat align 2 {
  %3 = alloca ptr, align 8
  %4 = alloca i32, align 4
  store ptr %0, ptr %3, align 8
  store i32 %1, ptr %4, align 4
  %5 = load ptr, ptr %3, align 8
  %6 = getelementptr inbounds %class.LogDecorators, ptr %5, i32 0, i32 0
  %7 = load i32, ptr %6, align 4
  %8 = load i32, ptr %4, align 4
  %9 = call noundef i32 @_ZN13LogDecorators4maskENS_9DecoratorE(i32 noundef %8)
  %10 = and i32 %7, %9
  %11 = icmp ne i32 %10, 0
  ret i1 %11
}

; Function Attrs: mustprogress nounwind uwtable
define linkonce_odr hidden noundef nonnull align 4 dereferenceable(4) ptr @_ZNK9LogOutput10decoratorsEv(ptr noundef nonnull align 8 dereferenceable(156) %0) #1 comdat align 2 {
  %2 = alloca ptr, align 8
  store ptr %0, ptr %2, align 8
  %3 = load ptr, ptr %2, align 8
  %4 = getelementptr inbounds %class.LogOutput, ptr %3, i32 0, i32 4
  ret ptr %4
}

; Function Attrs: mustprogress nounwind uwtable
define linkonce_odr hidden void @_ZN12outputStream9print_rawEPKc(ptr noundef nonnull align 8 dereferenceable(56) %0, ptr noundef %1) #1 comdat align 2 {
  %3 = alloca ptr, align 8
  %4 = alloca ptr, align 8
  store ptr %0, ptr %3, align 8
  store ptr %1, ptr %4, align 8
  %5 = load ptr, ptr %3, align 8
  %6 = load ptr, ptr %4, align 8
  %7 = load ptr, ptr %4, align 8
  %8 = call i64 @strlen(ptr noundef %7) #9
  call void @_ZN12outputStream9print_rawEPKcm(ptr noundef nonnull align 8 dereferenceable(56) %5, ptr noundef %6, i64 noundef %8)
  ret void
}

; Function Attrs: mustprogress nounwind uwtable
define linkonce_odr hidden noundef ptr @_ZNK9LogOutput13config_stringEv(ptr noundef nonnull align 8 dereferenceable(156) %0) #1 comdat align 2 {
  %2 = alloca ptr, align 8
  store ptr %0, ptr %2, align 8
  %3 = load ptr, ptr %2, align 8
  %4 = getelementptr inbounds %class.LogOutput, ptr %3, i32 0, i32 3
  %5 = call noundef ptr @_ZNK12stringStream4baseEv(ptr noundef nonnull align 8 dereferenceable(129) %4)
  ret ptr %5
}

; Function Attrs: mustprogress nounwind uwtable
define hidden void @_ZN9LogOutput8describeEP12outputStream(ptr noundef nonnull align 8 dereferenceable(156) %0, ptr noundef %1) unnamed_addr #1 align 2 {
  %3 = alloca ptr, align 8
  %4 = alloca ptr, align 8
  %5 = alloca i8, align 1
  %6 = alloca i8, align 1
  %7 = alloca i64, align 8
  %8 = alloca i32, align 4
  store ptr %0, ptr %3, align 8
  store ptr %1, ptr %4, align 8
  %9 = load ptr, ptr %3, align 8
  %10 = load ptr, ptr %4, align 8
  %11 = load ptr, ptr %9, align 8
  %12 = getelementptr inbounds ptr, ptr %11, i64 4
  %13 = load ptr, ptr %12, align 8
  %14 = call noundef ptr %13(ptr noundef nonnull align 8 dereferenceable(156) %9)
  call void (ptr, ptr, ...) @_ZN12outputStream5printEPKcz(ptr noundef nonnull align 8 dereferenceable(56) %10, ptr noundef @.str, ptr noundef %14)
  %15 = load ptr, ptr %4, align 8
  %16 = call noundef ptr @_ZNK9LogOutput13config_stringEv(ptr noundef nonnull align 8 dereferenceable(156) %9)
  call void @_ZN12outputStream9print_rawEPKc(ptr noundef nonnull align 8 dereferenceable(56) %15, ptr noundef %16)
  store i8 0, ptr %5, align 1
  store i8 32, ptr %6, align 1
  store i64 0, ptr %7, align 8
  br label %17

17:                                               ; preds = %33, %2
  %18 = load i64, ptr %7, align 8
  %19 = icmp ult i64 %18, 12
  br i1 %19, label %20, label %36

20:                                               ; preds = %17
  %21 = load i64, ptr %7, align 8
  %22 = trunc i64 %21 to i32
  store i32 %22, ptr %8, align 4
  %23 = call noundef nonnull align 4 dereferenceable(4) ptr @_ZNK9LogOutput10decoratorsEv(ptr noundef nonnull align 8 dereferenceable(156) %9)
  %24 = load i32, ptr %8, align 4
  %25 = call noundef zeroext i1 @_ZNK13LogDecorators12is_decoratorENS_9DecoratorE(ptr noundef nonnull align 4 dereferenceable(4) %23, i32 noundef %24)
  br i1 %25, label %26, label %32

26:                                               ; preds = %20
  store i8 1, ptr %5, align 1
  %27 = load ptr, ptr %4, align 8
  %28 = load i8, ptr %6, align 1
  %29 = sext i8 %28 to i32
  %30 = load i32, ptr %8, align 4
  %31 = call noundef ptr @_ZN13LogDecorators4nameENS_9DecoratorE(i32 noundef %30)
  call void (ptr, ptr, ...) @_ZN12outputStream5printEPKcz(ptr noundef nonnull align 8 dereferenceable(56) %27, ptr noundef @.str.4, i32 noundef %29, ptr noundef %31)
  store i8 44, ptr %6, align 1
  br label %32

32:                                               ; preds = %26, %20
  br label %33

33:                                               ; preds = %32
  %34 = load i64, ptr %7, align 8
  %35 = add i64 %34, 1
  store i64 %35, ptr %7, align 8
  br label %17, !llvm.loop !6

36:                                               ; preds = %17
  %37 = load i8, ptr %5, align 1
  %38 = trunc i8 %37 to i1
  br i1 %38, label %41, label %39

39:                                               ; preds = %36
  %40 = load ptr, ptr %4, align 8
  call void (ptr, ptr, ...) @_ZN12outputStream5printEPKcz(ptr noundef nonnull align 8 dereferenceable(56) %40, ptr noundef @.str.5)
  br label %41

41:                                               ; preds = %39, %36
  ret void
}