; Function Attrs: mustprogress nounwind uwtable
define hidden void @_ZN9LogOutput8describeEP12outputStream(ptr noundef nonnull align 8 dereferenceable(156) %0, ptr noundef %1) unnamed_addr #0 align 2 {
  %3 = load ptr, ptr %0, align 8
  %4 = getelementptr inbounds i8, ptr %3, i64 32
  %5 = load ptr, ptr %4, align 8
  %6 = tail call noundef ptr %5(ptr noundef nonnull align 8 dereferenceable(156) %0) #12
  tail call void (ptr, ptr, ...) @_ZN12outputStream5printEPKcz(ptr noundef nonnull align 8 dereferenceable(56) %1, ptr noundef nonnull @.str, ptr noundef %6) #12
  %7 = getelementptr inbounds i8, ptr %0, i64 72
  %8 = load ptr, ptr %7, align 8
  %9 = tail call i64 @strlen(ptr noundef nonnull dereferenceable(1) %8) #13
  tail call void @_ZN12outputStream9print_rawEPKcm(ptr noundef nonnull align 8 dereferenceable(56) %1, ptr noundef %8, i64 noundef %9) #12
  %10 = getelementptr inbounds i8, ptr %0, i64 152
  br label %.outer

.outer:                                           ; preds = %.thread, %2
  %.016.ph = phi i1 [ true, %.thread ], [ false, %2 ]
  %.01115.ph = phi i64 [ %20, %.thread ], [ 0, %2 ]
  %.01214.ph = phi i32 [ 44, %.thread ], [ 32, %2 ]
  %11 = load i32, ptr %10, align 8
  br label %12

12:                                               ; preds = %.outer, %16
  %.01115 = phi i64 [ %17, %16 ], [ %.01115.ph, %.outer ]
  %13 = trunc nuw nsw i64 %.01115 to i32
  %14 = shl nuw nsw i32 1, %13
  %15 = and i32 %11, %14
  %.not = icmp eq i32 %15, 0
  br i1 %.not, label %16, label %.thread

16:                                               ; preds = %12
  %17 = add nuw nsw i64 %.01115, 1
  %exitcond.not = icmp eq i64 %17, 12
  br i1 %exitcond.not, label %21, label %12, !llvm.loop !6

.thread:                                          ; preds = %12
  %18 = getelementptr inbounds [0 x [2 x ptr]], ptr @_ZN13LogDecorators5_nameE, i64 0, i64 %.01115
  %19 = load ptr, ptr %18, align 8
  tail call void (ptr, ptr, ...) @_ZN12outputStream5printEPKcz(ptr noundef nonnull align 8 dereferenceable(56) %1, ptr noundef nonnull @.str.4, i32 noundef %.01214.ph, ptr noundef %19) #12
  %20 = add nuw nsw i64 %.01115, 1
  %exitcond.not19 = icmp eq i64 %20, 12
  br i1 %exitcond.not19, label %.thread21, label %.outer, !llvm.loop !6

21:                                               ; preds = %16
  br i1 %.016.ph, label %.thread21, label %22

22:                                               ; preds = %21
  tail call void (ptr, ptr, ...) @_ZN12outputStream5printEPKcz(ptr noundef nonnull align 8 dereferenceable(56) %1, ptr noundef nonnull @.str.5) #12
  br label %.thread21

.thread21:                                        ; preds = %.thread, %22, %21
  ret void
}